target datalayout = "e-m:e-p270:32:32-p271:32:32-p272:64:64-i64:64-i128:128-f80:128-n8:16:32:64-S128"
target triple = "x86_64-pc-linux-gnu"

%struct.pg_conn = type { ptr, ptr, ptr, ptr, ptr, ptr, ptr, ptr, ptr, ptr, ptr, ptr, ptr, ptr, ptr, ptr, ptr, ptr, ptr, ptr, ptr, ptr, ptr, ptr, ptr, ptr, ptr, ptr, ptr, ptr, ptr, ptr, ptr, ptr, ptr, ptr, ptr, ptr, ptr, ptr, ptr, ptr, ptr, i8, ptr, i32, %struct.PGNoticeHooks, ptr, i32, i32, i32, i32, i32, [6 x i8], i8, i8, i32, i8, i8, i32, i8, i32, ptr, ptr, i32, i32, ptr, ptr, ptr, ptr, ptr, i32, %struct.SockAddr, %struct.SockAddr, i32, i32, i8, i8, i8, i8, i8, i8, ptr, i8, i32, [1 x ptr], i8, i8, ptr, ptr, i32, i32, i32, i8, i8, i32, i32, ptr, i8, i64, ptr, i64, ptr, i32, i32, ptr, i32, i8, i32, i32, i32, i32, ptr, %struct.pg_prng_state, ptr, i32, i32, i32, i32, ptr, i32, i32, i32, i32, ptr, i32, ptr, i8, ptr, ptr, ptr, i32, i8, i8, i8, i8, i8, i8, i8, i8, %struct.PQExpBufferData, i32, %struct.PQExpBufferData }
%struct.PGNoticeHooks = type { ptr, ptr, ptr, ptr }
%struct.SockAddr = type { %struct.sockaddr_storage, i32 }
%struct.sockaddr_storage = type { i16, [118 x i8], i64 }
%struct.pg_prng_state = type { i64, i64 }
%struct.PQExpBufferData = type { ptr, i64, i64 }

@.str.2 = private unnamed_addr constant [14 x i8] c"out of memory\00", align 1
@.str.17 = private unnamed_addr constant [45 x i8] c"PQrequestCancel() -- connection is not open\0A\00", align 1

; Function Attrs: nounwind uwtable
define void @PQfreeCancel(ptr noundef %0) #0 {
  %2 = alloca ptr, align 8
  store ptr %0, ptr %2, align 8
  %3 = load ptr, ptr %2, align 8
  call void @free(ptr noundef %3) #10
  ret void
}

; Function Attrs: nounwind uwtable
define i32 @PQrequestCancel(ptr noundef %0) #0 {
  %2 = alloca i32, align 4
  %3 = alloca ptr, align 8
  %4 = alloca i32, align 4
  %5 = alloca ptr, align 8
  %6 = alloca i32, align 4
  store ptr %0, ptr %3, align 8
  call void @llvm.lifetime.start.p0(i64 4, ptr %4) #10
  call void @llvm.lifetime.start.p0(i64 8, ptr %5) #10
  %7 = load ptr, ptr %3, align 8
  %8 = icmp ne ptr %7, null
  br i1 %8, label %10, label %9

9:                                                ; preds = %1
  store i32 0, ptr %2, align 4
  store i32 1, ptr %6, align 4
  br label %79

10:                                               ; preds = %1
  %11 = load ptr, ptr %3, align 8
  %12 = getelementptr inbounds nuw %struct.pg_conn, ptr %11, i32 0, i32 71
  %13 = load i32, ptr %12, align 8
  %14 = icmp eq i32 %13, -1
  br i1 %14, label %15, label %35

15:                                               ; preds = %10
  %16 = load ptr, ptr %3, align 8
  %17 = getelementptr inbounds nuw %struct.pg_conn, ptr %16, i32 0, i32 140
  %18 = getelementptr inbounds nuw %struct.PQExpBufferData, ptr %17, i32 0, i32 0
  %19 = load ptr, ptr %18, align 8
  %20 = load ptr, ptr %3, align 8
  %21 = getelementptr inbounds nuw %struct.pg_conn, ptr %20, i32 0, i32 140
  %22 = getelementptr inbounds nuw %struct.PQExpBufferData, ptr %21, i32 0, i32 2
  %23 = load i64, ptr %22, align 8
  %24 = call i64 @strlcpy(ptr noundef %19, ptr noundef @.str.17, i64 noundef %23)
  %25 = load ptr, ptr %3, align 8
  %26 = getelementptr inbounds nuw %struct.pg_conn, ptr %25, i32 0, i32 140
  %27 = getelementptr inbounds nuw %struct.PQExpBufferData, ptr %26, i32 0, i32 0
  %28 = load ptr, ptr %27, align 8
  %29 = call i64 @strlen(ptr noundef %28) #14
  %30 = load ptr, ptr %3, align 8
  %31 = getelementptr inbounds nuw %struct.pg_conn, ptr %30, i32 0, i32 140
  %32 = getelementptr inbounds nuw %struct.PQExpBufferData, ptr %31, i32 0, i32 1
  store i64 %29, ptr %32, align 8
  %33 = load ptr, ptr %3, align 8
  %34 = getelementptr inbounds nuw %struct.pg_conn, ptr %33, i32 0, i32 141
  store i32 0, ptr %34, align 8
  store i32 0, ptr %2, align 4
  store i32 1, ptr %6, align 4
  br label %79

35:                                               ; preds = %10
  %36 = load ptr, ptr %3, align 8
  %37 = call ptr @PQgetCancel(ptr noundef %36)
  store ptr %37, ptr %5, align 8
  %38 = load ptr, ptr %5, align 8
  %39 = icmp ne ptr %38, null
  br i1 %39, label %40, label %53

40:                                               ; preds = %35
  %41 = load ptr, ptr %5, align 8
  %42 = load ptr, ptr %3, align 8
  %43 = getelementptr inbounds nuw %struct.pg_conn, ptr %42, i32 0, i32 140
  %44 = getelementptr inbounds nuw %struct.PQExpBufferData, ptr %43, i32 0, i32 0
  %45 = load ptr, ptr %44, align 8
  %46 = load ptr, ptr %3, align 8
  %47 = getelementptr inbounds nuw %struct.pg_conn, ptr %46, i32 0, i32 140
  %48 = getelementptr inbounds nuw %struct.PQExpBufferData, ptr %47, i32 0, i32 2
  %49 = load i64, ptr %48, align 8
  %50 = trunc i64 %49 to i32
  %51 = call i32 @PQcancel(ptr noundef %41, ptr noundef %45, i32 noundef %50)
  store i32 %51, ptr %4, align 4
  %52 = load ptr, ptr %5, align 8
  call void @PQfreeCancel(ptr noundef %52)
  br label %63

53:                                               ; preds = %35
  %54 = load ptr, ptr %3, align 8
  %55 = getelementptr inbounds nuw %struct.pg_conn, ptr %54, i32 0, i32 140
  %56 = getelementptr inbounds nuw %struct.PQExpBufferData, ptr %55, i32 0, i32 0
  %57 = load ptr, ptr %56, align 8
  %58 = load ptr, ptr %3, align 8
  %59 = getelementptr inbounds nuw %struct.pg_conn, ptr %58, i32 0, i32 140
  %60 = getelementptr inbounds nuw %struct.PQExpBufferData, ptr %59, i32 0, i32 2
  %61 = load i64, ptr %60, align 8
  %62 = call i64 @strlcpy(ptr noundef %57, ptr noundef @.str.2, i64 noundef %61)
  store i32 0, ptr %4, align 4
  br label %63

63:                                               ; preds = %53, %40
  %64 = load i32, ptr %4, align 4
  %65 = icmp ne i32 %64, 0
  br i1 %65, label %77, label %66

66:                                               ; preds = %63
  %67 = load ptr, ptr %3, align 8
  %68 = getelementptr inbounds nuw %struct.pg_conn, ptr %67, i32 0, i32 140
  %69 = getelementptr inbounds nuw %struct.PQExpBufferData, ptr %68, i32 0, i32 0
  %70 = load ptr, ptr %69, align 8
  %71 = call i64 @strlen(ptr noundef %70) #14
  %72 = load ptr, ptr %3, align 8
  %73 = getelementptr inbounds nuw %struct.pg_conn, ptr %72, i32 0, i32 140
  %74 = getelementptr inbounds nuw %struct.PQExpBufferData, ptr %73, i32 0, i32 1
  store i64 %71, ptr %74, align 8
  %75 = load ptr, ptr %3, align 8
  %76 = getelementptr inbounds nuw %struct.pg_conn, ptr %75, i32 0, i32 141
  store i32 0, ptr %76, align 8
  br label %77

77:                                               ; preds = %66, %63
  %78 = load i32, ptr %4, align 4
  store i32 %78, ptr %2, align 4
  store i32 1, ptr %6, align 4
  br label %79

79:                                               ; preds = %77, %15, %9
  call void @llvm.lifetime.end.p0(i64 8, ptr %5) #10
  call void @llvm.lifetime.end.p0(i64 4, ptr %4) #10
  %80 = load i32, ptr %2, align 4
  ret i32 %80
}