; Function Attrs: nounwind uwtable
define range(i32 0, 2) i32 @PQrequestCancel(ptr noundef %0) local_unnamed_addr #0 {
  %.not = icmp eq ptr %0, null
  br i1 %.not, label %27, label %2

2:                                                ; preds = %1
  %3 = getelementptr inbounds nuw i8, ptr %0, i64 520
  %4 = load i32, ptr %3, align 8
  %5 = icmp eq i32 %4, -1
  br i1 %5, label %6, label %12

6:                                                ; preds = %2
  %7 = getelementptr inbounds nuw i8, ptr %0, i64 1120
  %8 = load ptr, ptr %7, align 8
  %9 = getelementptr inbounds nuw i8, ptr %0, i64 1136
  %10 = load i64, ptr %9, align 8
  %11 = tail call i64 @strlcpy(ptr noundef %8, ptr noundef nonnull dereferenceable(1) @.str.17, i64 noundef %10) #16
  br label %.sink.split

12:                                               ; preds = %2
  %13 = tail call ptr @PQgetCancel(ptr noundef nonnull %0)
  %.not23 = icmp eq ptr %13, null
  %14 = getelementptr inbounds nuw i8, ptr %0, i64 1120
  %15 = load ptr, ptr %14, align 8
  %16 = getelementptr inbounds nuw i8, ptr %0, i64 1136
  %17 = load i64, ptr %16, align 8
  br i1 %.not23, label %.thread, label %19

.thread:                                          ; preds = %12
  %18 = tail call i64 @strlcpy(ptr noundef %15, ptr noundef nonnull dereferenceable(1) @.str.2, i64 noundef %17) #16
  br label %22

19:                                               ; preds = %12
  %20 = trunc i64 %17 to i32
  %21 = tail call i32 @PQcancel(ptr noundef nonnull %13, ptr noundef %15, i32 noundef %20)
  tail call void @free(ptr noundef nonnull %13) #16
  %.not24 = icmp eq i32 %21, 0
  br i1 %.not24, label %22, label %27

22:                                               ; preds = %.thread, %19
  %23 = getelementptr inbounds nuw i8, ptr %0, i64 1120
  br label %.sink.split

.sink.split:                                      ; preds = %6, %22
  %.sink29.in = phi ptr [ %23, %22 ], [ %7, %6 ]
  %.sink29 = load ptr, ptr %.sink29.in, align 8
  %24 = tail call i64 @strlen(ptr noundef nonnull dereferenceable(1) %.sink29) #20
  %25 = getelementptr inbounds nuw i8, ptr %0, i64 1128
  store i64 %24, ptr %25, align 8
  %26 = getelementptr inbounds nuw i8, ptr %0, i64 1144
  store i32 0, ptr %26, align 8
  br label %27

27:                                               ; preds = %.sink.split, %19, %1
  %.0 = phi i32 [ 0, %1 ], [ 1, %19 ], [ 0, %.sink.split ]
  ret i32 %.0
}